; Function Attrs: nounwind uwtable
define void @ipfree_(ptr noundef captures(none) %0) local_unnamed_addr #0 {
  %2 = load ptr, ptr %0, align 8, !tbaa !23
  %3 = getelementptr inbounds nuw i8, ptr %2, i64 64
  %4 = load ptr, ptr %3, align 8, !tbaa !7
  tail call void @FreeIpoptProblem(ptr noundef %4) #8
  tail call void @free(ptr noundef %2) #8
  store ptr null, ptr %0, align 8, !tbaa !23
  ret void
}